target datalayout = "e-m:e-p270:32:32-p271:32:32-p272:64:64-i64:64-i128:128-f80:128-n8:16:32:64-S128"
target triple = "x86_64-pc-linux-gnu"

%"class.std::ios_base" = type { ptr, i64, i64, i32, i32, i32, ptr, %"struct.std::ios_base::_Words", [8 x %"struct.std::ios_base::_Words"], i32, ptr, %"class.std::locale" }
%"struct.std::ios_base::_Words" = type { ptr, i64 }
%"class.std::locale" = type { ptr }

@.str.184 = private unnamed_addr constant [2 x i8] c"\22\00", align 1
@.str.534 = private unnamed_addr constant [3 x i8] c"\22 \00", align 1
@.str.537 = private unnamed_addr constant [2 x i8] c"U\00", align 1

; Function Attrs: inlinehint mustprogress nounwind uwtable
define linkonce_odr noundef i32 @_ZStorSt12_Ios_IostateS_(i32 noundef %0, i32 noundef %1) #8 comdat {
  %3 = alloca i32, align 4
  %4 = alloca i32, align 4
  store i32 %0, ptr %3, align 4, !tbaa !1475
  store i32 %1, ptr %4, align 4, !tbaa !1475
  %5 = load i32, ptr %3, align 4, !tbaa !1475
  %6 = load i32, ptr %4, align 4, !tbaa !1475
  %7 = or i32 %5, %6
  ret i32 %7
}

; Function Attrs: mustprogress nounwind uwtable
define available_externally noundef i32 @_ZNKSt9basic_iosIcSt11char_traitsIcEE7rdstateEv(ptr noundef nonnull align 8 dereferenceable(264) %0) #5 align 2 {
  %2 = alloca ptr, align 8
  store ptr %0, ptr %2, align 8, !tbaa !1473
  %3 = load ptr, ptr %2, align 8
  %4 = getelementptr inbounds nuw %"class.std::ios_base", ptr %3, i32 0, i32 5
  %5 = load i32, ptr %4, align 8, !tbaa !1476
  ret i32 %5
}

; Function Attrs: mustprogress nounwind uwtable
define linkonce_odr noundef i64 @_ZNSt11char_traitsIcE6lengthEPKc(ptr noundef %0) #5 comdat align 2 {
  %2 = alloca ptr, align 8
  store ptr %0, ptr %2, align 8, !tbaa !29
  %3 = load ptr, ptr %2, align 8, !tbaa !29
  %4 = call i64 @strlen(ptr noundef %3) #3
  ret i64 %4
}

; Function Attrs: mustprogress uwtable
define available_externally void @_ZNSt9basic_iosIcSt11char_traitsIcEE8setstateESt12_Ios_Iostate(ptr noundef nonnull align 8 dereferenceable(264) %0, i32 noundef %1) #4 align 2 {
  %3 = alloca ptr, align 8
  %4 = alloca i32, align 4
  store ptr %0, ptr %3, align 8, !tbaa !1473
  store i32 %1, ptr %4, align 4, !tbaa !1475
  %5 = load ptr, ptr %3, align 8
  %6 = call noundef i32 @_ZNKSt9basic_iosIcSt11char_traitsIcEE7rdstateEv(ptr noundef nonnull align 8 dereferenceable(264) %5)
  %7 = load i32, ptr %4, align 4, !tbaa !1475
  %8 = call noundef i32 @_ZStorSt12_Ios_IostateS_(i32 noundef %6, i32 noundef %7)
  call void @_ZNSt9basic_iosIcSt11char_traitsIcEE5clearESt12_Ios_Iostate(ptr noundef nonnull align 8 dereferenceable(264) %5, i32 noundef %8)
  ret void
}

; Function Attrs: inlinehint mustprogress nounwind uwtable
define linkonce_odr noundef zeroext i1 @_ZN7testing8internal8IsXDigitEDi(i32 noundef zeroext %0) #8 comdat {
  %2 = alloca i32, align 4
  %3 = alloca i8, align 1
  store i32 %0, ptr %2, align 4, !tbaa !339
  call void @llvm.lifetime.start.p0(i64 1, ptr %3) #3
  %4 = load i32, ptr %2, align 4, !tbaa !339
  %5 = trunc i32 %4 to i8
  store i8 %5, ptr %3, align 1, !tbaa !160
  %6 = load i32, ptr %2, align 4, !tbaa !339
  %7 = load i8, ptr %3, align 1, !tbaa !160
  %8 = zext i8 %7 to i32
  %9 = icmp eq i32 %6, %8
  br i1 %9, label %10, label %15

10:                                               ; preds = %1
  %11 = load i8, ptr %3, align 1, !tbaa !160
  %12 = zext i8 %11 to i32
  %13 = call i32 @isxdigit(i32 noundef %12) #27
  %14 = icmp ne i32 %13, 0
  br label %15

15:                                               ; preds = %10, %1
  %16 = phi i1 [ false, %1 ], [ %14, %10 ]
  call void @llvm.lifetime.end.p0(i64 1, ptr %3) #3
  ret i1 %16
}

; Function Attrs: inlinehint mustprogress uwtable
define available_externally noundef nonnull align 8 dereferenceable(8) ptr @_ZStlsISt11char_traitsIcEERSt13basic_ostreamIcT_ES5_PKc(ptr noundef nonnull align 8 dereferenceable(8) %0, ptr noundef %1) #11 {
  %3 = alloca ptr, align 8
  %4 = alloca ptr, align 8
  store ptr %0, ptr %3, align 8, !tbaa !175
  store ptr %1, ptr %4, align 8, !tbaa !29
  %5 = load ptr, ptr %4, align 8, !tbaa !29
  %6 = icmp ne ptr %5, null
  br i1 %6, label %13, label %7

7:                                                ; preds = %2
  %8 = load ptr, ptr %3, align 8, !tbaa !175
  %9 = load ptr, ptr %8, align 8, !tbaa !47
  %10 = getelementptr i8, ptr %9, i64 -24
  %11 = load i64, ptr %10, align 8
  %12 = getelementptr inbounds i8, ptr %8, i64 %11
  call void @_ZNSt9basic_iosIcSt11char_traitsIcEE8setstateESt12_Ios_Iostate(ptr noundef nonnull align 8 dereferenceable(264) %12, i32 noundef 1)
  br label %19

13:                                               ; preds = %2
  %14 = load ptr, ptr %3, align 8, !tbaa !175
  %15 = load ptr, ptr %4, align 8, !tbaa !29
  %16 = load ptr, ptr %4, align 8, !tbaa !29
  %17 = call noundef i64 @_ZNSt11char_traitsIcE6lengthEPKc(ptr noundef %16)
  %18 = call noundef nonnull align 8 dereferenceable(8) ptr @_ZSt16__ostream_insertIcSt11char_traitsIcEERSt13basic_ostreamIT_T0_ES6_PKS3_l(ptr noundef nonnull align 8 dereferenceable(8) %14, ptr noundef %15, i64 noundef %17)
  br label %19

19:                                               ; preds = %13, %7
  %20 = load ptr, ptr %3, align 8, !tbaa !175
  ret ptr %20
}

; Function Attrs: mustprogress nounwind uwtable
define internal noundef ptr @_ZN7testing8internalL18GetCharWidthPrefixEDi(i32 noundef zeroext %0) #5 {
  %2 = alloca i32, align 4
  store i32 %0, ptr %2, align 4, !tbaa !339
  ret ptr @.str.537
}

; Function Attrs: mustprogress uwtable
define internal noundef i32 @_ZN7testing8internalL20PrintCharsAsStringToIDiEENS0_10CharFormatEPKT_mPSo(ptr noundef %0, i64 noundef %1, ptr noundef %2) #4 {
  %4 = alloca ptr, align 8
  %5 = alloca i64, align 8
  %6 = alloca ptr, align 8
  %7 = alloca ptr, align 8
  %8 = alloca i8, align 1
  %9 = alloca i32, align 4
  %10 = alloca i64, align 8
  %11 = alloca i32, align 4
  store ptr %0, ptr %4, align 8, !tbaa !354
  store i64 %1, ptr %5, align 8, !tbaa !179
  store ptr %2, ptr %6, align 8, !tbaa !175
  call void @llvm.lifetime.start.p0(i64 8, ptr %7) #3
  %12 = load ptr, ptr %4, align 8, !tbaa !354
  %13 = load i32, ptr %12, align 4, !tbaa !339
  %14 = call noundef ptr @_ZN7testing8internalL18GetCharWidthPrefixEDi(i32 noundef zeroext %13)
  store ptr %14, ptr %7, align 8, !tbaa !29
  %15 = load ptr, ptr %6, align 8, !tbaa !175
  %16 = load ptr, ptr %7, align 8, !tbaa !29
  %17 = call noundef nonnull align 8 dereferenceable(8) ptr @_ZStlsISt11char_traitsIcEERSt13basic_ostreamIcT_ES5_PKc(ptr noundef nonnull align 8 dereferenceable(8) %15, ptr noundef %16)
  %18 = call noundef nonnull align 8 dereferenceable(8) ptr @_ZStlsISt11char_traitsIcEERSt13basic_ostreamIcT_ES5_PKc(ptr noundef nonnull align 8 dereferenceable(8) %17, ptr noundef @.str.184)
  call void @llvm.lifetime.start.p0(i64 1, ptr %8) #3
  store i8 0, ptr %8, align 1, !tbaa !25
  call void @llvm.lifetime.start.p0(i64 4, ptr %9) #3
  store i32 0, ptr %9, align 4, !tbaa !335
  call void @llvm.lifetime.start.p0(i64 8, ptr %10) #3
  store i64 0, ptr %10, align 8, !tbaa !179
  br label %19

19:                                               ; preds = %50, %3
  %20 = load i64, ptr %10, align 8, !tbaa !179
  %21 = load i64, ptr %5, align 8, !tbaa !179
  %22 = icmp ult i64 %20, %21
  br i1 %22, label %24, label %23

23:                                               ; preds = %19
  call void @llvm.lifetime.end.p0(i64 8, ptr %10) #3
  br label %53

24:                                               ; preds = %19
  call void @llvm.lifetime.start.p0(i64 4, ptr %11) #3
  %25 = load ptr, ptr %4, align 8, !tbaa !354
  %26 = load i64, ptr %10, align 8, !tbaa !179
  %27 = getelementptr inbounds nuw i32, ptr %25, i64 %26
  %28 = load i32, ptr %27, align 4, !tbaa !339
  store i32 %28, ptr %11, align 4, !tbaa !339
  %29 = load i8, ptr %8, align 1, !tbaa !25, !range !18, !noundef !19
  %30 = trunc i8 %29 to i1
  br i1 %30, label %31, label %40

31:                                               ; preds = %24
  %32 = load i32, ptr %11, align 4, !tbaa !339
  %33 = call noundef zeroext i1 @_ZN7testing8internal8IsXDigitEDi(i32 noundef zeroext %32)
  br i1 %33, label %34, label %40

34:                                               ; preds = %31
  %35 = load ptr, ptr %6, align 8, !tbaa !175
  %36 = call noundef nonnull align 8 dereferenceable(8) ptr @_ZStlsISt11char_traitsIcEERSt13basic_ostreamIcT_ES5_PKc(ptr noundef nonnull align 8 dereferenceable(8) %35, ptr noundef @.str.534)
  %37 = load ptr, ptr %7, align 8, !tbaa !29
  %38 = call noundef nonnull align 8 dereferenceable(8) ptr @_ZStlsISt11char_traitsIcEERSt13basic_ostreamIcT_ES5_PKc(ptr noundef nonnull align 8 dereferenceable(8) %36, ptr noundef %37)
  %39 = call noundef nonnull align 8 dereferenceable(8) ptr @_ZStlsISt11char_traitsIcEERSt13basic_ostreamIcT_ES5_PKc(ptr noundef nonnull align 8 dereferenceable(8) %38, ptr noundef @.str.184)
  br label %40

40:                                               ; preds = %34, %31, %24
  %41 = load i32, ptr %11, align 4, !tbaa !339
  %42 = load ptr, ptr %6, align 8, !tbaa !175
  %43 = call noundef i32 @_ZN7testing8internalL22PrintAsStringLiteralToEDiPSo(i32 noundef zeroext %41, ptr noundef %42)
  %44 = icmp eq i32 %43, 1
  %45 = zext i1 %44 to i8
  store i8 %45, ptr %8, align 1, !tbaa !25
  %46 = load i8, ptr %8, align 1, !tbaa !25, !range !18, !noundef !19
  %47 = trunc i8 %46 to i1
  br i1 %47, label %48, label %49

48:                                               ; preds = %40
  store i32 1, ptr %9, align 4, !tbaa !335
  br label %49

49:                                               ; preds = %48, %40
  call void @llvm.lifetime.end.p0(i64 4, ptr %11) #3
  br label %50

50:                                               ; preds = %49
  %51 = load i64, ptr %10, align 8, !tbaa !179
  %52 = add i64 %51, 1
  store i64 %52, ptr %10, align 8, !tbaa !179
  br label %19, !llvm.loop !367

53:                                               ; preds = %23
  %54 = load ptr, ptr %6, align 8, !tbaa !175
  %55 = call noundef nonnull align 8 dereferenceable(8) ptr @_ZStlsISt11char_traitsIcEERSt13basic_ostreamIcT_ES5_PKc(ptr noundef nonnull align 8 dereferenceable(8) %54, ptr noundef @.str.184)
  %56 = load i32, ptr %9, align 4, !tbaa !335
  call void @llvm.lifetime.end.p0(i64 4, ptr %9) #3
  call void @llvm.lifetime.end.p0(i64 1, ptr %8) #3
  call void @llvm.lifetime.end.p0(i64 8, ptr %7) #3
  ret i32 %56
}